target datalayout = "e-m:e-p270:32:32-p271:32:32-p272:64:64-i64:64-i128:128-f80:128-n8:16:32:64-S128"
target triple = "x86_64-pc-linux-gnu"

; Function Attrs: nounwind uwtable
define internal i32 @non_io_retry_cert_verify_cb(ptr noundef %0, ptr noundef %1) #0 {
  %3 = alloca i32, align 4
  %4 = alloca ptr, align 8
  %5 = alloca ptr, align 8
  %6 = alloca i32, align 4
  %7 = alloca ptr, align 8
  %8 = alloca ptr, align 8
  %9 = alloca i32, align 4
  store ptr %0, ptr %4, align 8, !tbaa !80
  store ptr %1, ptr %5, align 8, !tbaa !79
  call void @llvm.lifetime.start.p0(i64 4, ptr %6) #8
  %10 = call i32 @SSL_get_ex_data_X509_STORE_CTX_idx()
  store i32 %10, ptr %6, align 4, !tbaa !13
  call void @llvm.lifetime.start.p0(i64 8, ptr %7) #8
  call void @llvm.lifetime.start.p0(i64 8, ptr %8) #8
  %11 = load ptr, ptr %5, align 8, !tbaa !79
  store ptr %11, ptr %8, align 8, !tbaa !71
  %12 = load i32, ptr %6, align 4, !tbaa !13
  %13 = icmp slt i32 %12, 0
  br i1 %13, label %19, label %14

14:                                               ; preds = %2
  %15 = load ptr, ptr %4, align 8, !tbaa !80
  %16 = load i32, ptr %6, align 4, !tbaa !13
  %17 = call ptr @X509_STORE_CTX_get_ex_data(ptr noundef %15, i32 noundef %16)
  store ptr %17, ptr %7, align 8, !tbaa !17
  %18 = icmp eq ptr %17, null
  br i1 %18, label %19, label %20

19:                                               ; preds = %14, %2
  store i32 0, ptr %3, align 4
  store i32 1, ptr %9, align 4
  br label %30

20:                                               ; preds = %14
  %21 = load ptr, ptr %8, align 8, !tbaa !71
  %22 = load i32, ptr %21, align 4, !tbaa !13
  %23 = icmp eq i32 %22, 0
  br i1 %23, label %24, label %29

24:                                               ; preds = %20
  %25 = load ptr, ptr %7, align 8, !tbaa !17
  %26 = call i64 @SSL_ctrl(ptr noundef %25, i32 noundef 136, i64 noundef 0, ptr noundef null)
  %27 = icmp sgt i64 %26, 0
  %28 = zext i1 %27 to i32
  store i32 %28, ptr %3, align 4
  store i32 1, ptr %9, align 4
  br label %30

29:                                               ; preds = %20
  store i32 1, ptr %3, align 4
  store i32 1, ptr %9, align 4
  br label %30

30:                                               ; preds = %29, %24, %19
  call void @llvm.lifetime.end.p0(i64 8, ptr %8) #8
  call void @llvm.lifetime.end.p0(i64 8, ptr %7) #8
  call void @llvm.lifetime.end.p0(i64 4, ptr %6) #8
  %31 = load i32, ptr %3, align 4
  ret i32 %31
}