; Function Attrs: nounwind uwtable
define internal range(i32 0, 2) i32 @non_io_retry_cert_verify_cb(ptr noundef %0, ptr noundef readonly captures(none) %1) #1 {
  %3 = tail call i32 @SSL_get_ex_data_X509_STORE_CTX_idx() #10
  %4 = icmp slt i32 %3, 0
  br i1 %4, label %15, label %5

5:                                                ; preds = %2
  %6 = tail call ptr @X509_STORE_CTX_get_ex_data(ptr noundef %0, i32 noundef %3) #10
  %7 = icmp eq ptr %6, null
  br i1 %7, label %15, label %8

8:                                                ; preds = %5
  %9 = load i32, ptr %1, align 4, !tbaa !19
  %10 = icmp eq i32 %9, 0
  br i1 %10, label %11, label %15

11:                                               ; preds = %8
  %12 = tail call i64 @SSL_ctrl(ptr noundef nonnull %6, i32 noundef 136, i64 noundef 0, ptr noundef null) #10
  %13 = icmp sgt i64 %12, 0
  %14 = zext i1 %13 to i32
  br label %15

15:                                               ; preds = %8, %2, %5, %11
  %.0 = phi i32 [ %14, %11 ], [ 0, %5 ], [ 0, %2 ], [ 1, %8 ]
  ret i32 %.0
}